target datalayout = "e-m:e-p270:32:32-p271:32:32-p272:64:64-i64:64-i128:128-f80:128-n8:16:32:64-S128"
target triple = "x86_64-pc-linux-gnu"

%struct.MemBuffer = type { i64, i64, i64, i64, ptr }
%struct.WebPDemuxer = type { %struct.MemBuffer, i32, i32, i32, i32, i32, i32, i32, i32, ptr, ptr, ptr, ptr }

; Function Attrs: nounwind uwtable
define i32 @WebPDemuxGetI(ptr noundef %0, i32 noundef %1) #0 {
  %3 = alloca i32, align 4
  %4 = alloca ptr, align 8
  %5 = alloca i32, align 4
  store ptr %0, ptr %4, align 8, !tbaa !16
  store i32 %1, ptr %5, align 4, !tbaa !8
  %6 = load ptr, ptr %4, align 8, !tbaa !16
  %7 = icmp eq ptr %6, null
  br i1 %7, label %8, label %9

8:                                                ; preds = %2
  store i32 0, ptr %3, align 4
  br label %36

9:                                                ; preds = %2
  %10 = load i32, ptr %5, align 4, !tbaa !8
  switch i32 %10, label %35 [
    i32 0, label %11
    i32 1, label %15
    i32 2, label %19
    i32 3, label %23
    i32 4, label %27
    i32 5, label %31
  ]

11:                                               ; preds = %9
  %12 = load ptr, ptr %4, align 8, !tbaa !16
  %13 = getelementptr inbounds nuw %struct.WebPDemuxer, ptr %12, i32 0, i32 3
  %14 = load i32, ptr %13, align 8, !tbaa !47
  store i32 %14, ptr %3, align 4
  br label %36

15:                                               ; preds = %9
  %16 = load ptr, ptr %4, align 8, !tbaa !16
  %17 = getelementptr inbounds nuw %struct.WebPDemuxer, ptr %16, i32 0, i32 4
  %18 = load i32, ptr %17, align 4, !tbaa !43
  store i32 %18, ptr %3, align 4
  br label %36

19:                                               ; preds = %9
  %20 = load ptr, ptr %4, align 8, !tbaa !16
  %21 = getelementptr inbounds nuw %struct.WebPDemuxer, ptr %20, i32 0, i32 5
  %22 = load i32, ptr %21, align 8, !tbaa !45
  store i32 %22, ptr %3, align 4
  br label %36

23:                                               ; preds = %9
  %24 = load ptr, ptr %4, align 8, !tbaa !16
  %25 = getelementptr inbounds nuw %struct.WebPDemuxer, ptr %24, i32 0, i32 6
  %26 = load i32, ptr %25, align 4, !tbaa !49
  store i32 %26, ptr %3, align 4
  br label %36

27:                                               ; preds = %9
  %28 = load ptr, ptr %4, align 8, !tbaa !16
  %29 = getelementptr inbounds nuw %struct.WebPDemuxer, ptr %28, i32 0, i32 7
  %30 = load i32, ptr %29, align 8, !tbaa !50
  store i32 %30, ptr %3, align 4
  br label %36

31:                                               ; preds = %9
  %32 = load ptr, ptr %4, align 8, !tbaa !16
  %33 = getelementptr inbounds nuw %struct.WebPDemuxer, ptr %32, i32 0, i32 8
  %34 = load i32, ptr %33, align 4, !tbaa !48
  store i32 %34, ptr %3, align 4
  br label %36

35:                                               ; preds = %9
  store i32 0, ptr %3, align 4
  br label %36

36:                                               ; preds = %35, %31, %27, %23, %19, %15, %11, %8
  %37 = load i32, ptr %3, align 4
  ret i32 %37
}