; Function Attrs: mustprogress nofree norecurse nosync nounwind willreturn memory(argmem: read) uwtable
define i32 @WebPDemuxGetI(ptr noundef readonly captures(address_is_null) %0, i32 noundef %1) local_unnamed_addr #4 {
  %3 = icmp eq ptr %0, null
  br i1 %3, label %23, label %4

4:                                                ; preds = %2
  switch i32 %1, label %23 [
    i32 0, label %5
    i32 1, label %8
    i32 2, label %11
    i32 3, label %14
    i32 4, label %17
    i32 5, label %20
  ]

5:                                                ; preds = %4
  %6 = getelementptr inbounds nuw i8, ptr %0, i64 48
  %7 = load i32, ptr %6, align 8, !tbaa !43
  br label %23

8:                                                ; preds = %4
  %9 = getelementptr inbounds nuw i8, ptr %0, i64 52
  %10 = load i32, ptr %9, align 4, !tbaa !22
  br label %23

11:                                               ; preds = %4
  %12 = getelementptr inbounds nuw i8, ptr %0, i64 56
  %13 = load i32, ptr %12, align 8, !tbaa !23
  br label %23

14:                                               ; preds = %4
  %15 = getelementptr inbounds nuw i8, ptr %0, i64 60
  %16 = load i32, ptr %15, align 4, !tbaa !20
  br label %23

17:                                               ; preds = %4
  %18 = getelementptr inbounds nuw i8, ptr %0, i64 64
  %19 = load i32, ptr %18, align 8, !tbaa !21
  br label %23

20:                                               ; preds = %4
  %21 = getelementptr inbounds nuw i8, ptr %0, i64 68
  %22 = load i32, ptr %21, align 4, !tbaa !44
  br label %23

23:                                               ; preds = %4, %2, %20, %17, %14, %11, %8, %5
  %.0 = phi i32 [ %22, %20 ], [ %19, %17 ], [ %16, %14 ], [ %13, %11 ], [ %10, %8 ], [ %7, %5 ], [ 0, %2 ], [ 0, %4 ]
  ret i32 %.0
}